; Function Attrs: nounwind uwtable
define dso_local noundef i64 @pg_stat_reset_single_table_counters(ptr noundef readonly captures(none) %0) local_unnamed_addr #0 {
  %2 = getelementptr inbounds nuw i8, ptr %0, i64 32
  %3 = load i64, ptr %2, align 8
  %4 = trunc i64 %3 to i32
  %5 = tail call zeroext i1 @IsSharedRelation(i32 noundef %4) #9
  %6 = load i32, ptr @MyDatabaseId, align 4
  %7 = select i1 %5, i32 0, i32 %6
  %8 = and i64 %3, 4294967295
  tail call void @pgstat_reset(i32 noundef 2, i32 noundef %7, i64 noundef %8) #9
  ret i64 0
}